; Function Attrs: mustprogress uwtable
define hidden void @_ZNK8seq_util3str10get_concatEP4exprR10ptr_vectorIS1_E(ptr noundef nonnull align 8 dereferenceable(20) %0, ptr noundef %1, ptr noundef nonnull align 8 dereferenceable(8) %2) local_unnamed_addr #3 align 2 {
  %4 = getelementptr inbounds nuw i8, ptr %0, i64 16
  %5 = getelementptr inbounds nuw i8, ptr %1, i64 4
  %6 = load i32, ptr %5, align 4
  %7 = and i32 %6, 65535
  %8 = icmp eq i32 %7, 0
  br i1 %8, label %.lr.ph, label %._crit_edge

.lr.ph:                                           ; preds = %3, %24
  %.0913 = phi ptr [ %28, %24 ], [ %1, %3 ]
  %9 = getelementptr inbounds nuw i8, ptr %.0913, i64 16
  %10 = load ptr, ptr %9, align 8, !tbaa !186
  %11 = getelementptr inbounds nuw i8, ptr %10, i64 24
  %12 = load ptr, ptr %11, align 8, !tbaa !41
  %.not.i.i.i.i.i = icmp eq ptr %12, null
  br i1 %.not.i.i.i.i.i, label %._crit_edge, label %_ZNK8seq_util3str9is_concatEPK4expr.exit.i

_ZNK8seq_util3str9is_concatEPK4expr.exit.i:       ; preds = %.lr.ph
  %13 = load i32, ptr %4, align 8, !tbaa !206
  %14 = load i32, ptr %12, align 8, !tbaa !44
  %15 = icmp eq i32 %14, %13
  %16 = getelementptr inbounds nuw i8, ptr %12, i64 4
  %17 = load i32, ptr %16, align 4
  %18 = icmp eq i32 %17, 2
  %19 = select i1 %15, i1 %18, i1 false
  br i1 %19, label %20, label %._crit_edge

20:                                               ; preds = %_ZNK8seq_util3str9is_concatEPK4expr.exit.i
  %21 = getelementptr inbounds nuw i8, ptr %.0913, i64 24
  %22 = load i32, ptr %21, align 8, !tbaa !191
  %23 = icmp eq i32 %22, 2
  br i1 %23, label %24, label %._crit_edge

24:                                               ; preds = %20
  %25 = getelementptr inbounds nuw i8, ptr %.0913, i64 32
  %26 = load ptr, ptr %25, align 8, !tbaa !178
  %27 = getelementptr inbounds nuw i8, ptr %.0913, i64 40
  %28 = load ptr, ptr %27, align 8, !tbaa !178
  tail call void @_ZNK8seq_util3str10get_concatEP4exprR10ptr_vectorIS1_E(ptr noundef nonnull align 8 dereferenceable(20) %0, ptr noundef %26, ptr noundef nonnull align 8 dereferenceable(8) %2)
  %29 = getelementptr inbounds nuw i8, ptr %28, i64 4
  %30 = load i32, ptr %29, align 4
  %31 = and i32 %30, 65535
  %32 = icmp eq i32 %31, 0
  br i1 %32, label %.lr.ph, label %._crit_edge, !llvm.loop !231

._crit_edge:                                      ; preds = %.lr.ph, %24, %_ZNK8seq_util3str9is_concatEPK4expr.exit.i, %20, %3
  %.09.lcssa = phi ptr [ %1, %3 ], [ %.0913, %20 ], [ %.0913, %_ZNK8seq_util3str9is_concatEPK4expr.exit.i ], [ %28, %24 ], [ %.0913, %.lr.ph ]
  %33 = tail call noundef zeroext i1 @_ZNK8seq_util3str8is_emptyEPK4expr(ptr noundef nonnull align 8 dereferenceable(20) %0, ptr noundef nonnull %.09.lcssa)
  br i1 %33, label %50, label %34

34:                                               ; preds = %._crit_edge
  %35 = load ptr, ptr %2, align 8, !tbaa !175
  %36 = icmp eq ptr %35, null
  br i1 %36, label %43, label %37

37:                                               ; preds = %34
  %38 = getelementptr inbounds i8, ptr %35, i64 -4
  %39 = load i32, ptr %38, align 4, !tbaa !29
  %40 = getelementptr inbounds i8, ptr %35, i64 -8
  %41 = load i32, ptr %40, align 4, !tbaa !29
  %42 = icmp eq i32 %39, %41
  br i1 %42, label %43, label %_ZN6vectorIP4exprLb0EjE9push_backERKS1_.exit

43:                                               ; preds = %37, %34
  tail call void @_ZN6vectorIP4exprLb0EjE13expand_vectorEv(ptr noundef nonnull align 8 dereferenceable(8) %2)
  %.pre.i = load ptr, ptr %2, align 8, !tbaa !175
  %.phi.trans.insert.i = getelementptr inbounds i8, ptr %.pre.i, i64 -4
  %.pre2.i = load i32, ptr %.phi.trans.insert.i, align 4, !tbaa !29
  br label %_ZN6vectorIP4exprLb0EjE9push_backERKS1_.exit

_ZN6vectorIP4exprLb0EjE9push_backERKS1_.exit:     ; preds = %37, %43
  %44 = phi i32 [ %.pre2.i, %43 ], [ %39, %37 ]
  %45 = phi ptr [ %.pre.i, %43 ], [ %35, %37 ]
  %46 = getelementptr inbounds i8, ptr %45, i64 -4
  %47 = zext i32 %44 to i64
  %48 = getelementptr inbounds nuw ptr, ptr %45, i64 %47
  store ptr %.09.lcssa, ptr %48, align 8, !tbaa !178
  %49 = add i32 %44, 1
  store i32 %49, ptr %46, align 4, !tbaa !29
  br label %50

50:                                               ; preds = %_ZN6vectorIP4exprLb0EjE9push_backERKS1_.exit, %._crit_edge
  ret void
}